target datalayout = "e-m:e-p270:32:32-p271:32:32-p272:64:64-i64:64-i128:128-f80:128-n8:16:32:64-S128"
target triple = "x86_64-pc-linux-gnu"

%struct.AVFilterContext = type { ptr, ptr, ptr, ptr, ptr, i32, ptr, ptr, i32, ptr, ptr, i32, i32, ptr, ptr, ptr, ptr, i32, ptr, i32, i32 }
%struct.XMedianContext = type { ptr, ptr, i32, i32, i32, i32, float, i32, i32, i32, i32, i32, i32, [4 x i32], [4 x i32], [4 x i32], ptr, ptr, ptr, %struct.FFFrameSync, ptr }
%struct.FFFrameSync = type { ptr, ptr, i32, %struct.AVRational, i64, ptr, ptr, i32, i32, i8, i8, ptr, i32, i32, i32, i32 }
%struct.AVRational = type { i32, i32 }

; Function Attrs: cold nounwind optsize uwtable
define internal void @uninit(ptr noundef %0) #1 {
  %2 = alloca ptr, align 8
  %3 = alloca ptr, align 8
  %4 = alloca i32, align 4
  store ptr %0, ptr %2, align 8, !tbaa !4
  call void @llvm.lifetime.start.p0(i64 8, ptr %3) #11
  %5 = load ptr, ptr %2, align 8, !tbaa !4
  %6 = getelementptr inbounds nuw %struct.AVFilterContext, ptr %5, i32 0, i32 9
  %7 = load ptr, ptr %6, align 8, !tbaa !9
  store ptr %7, ptr %3, align 8, !tbaa !22
  %8 = load ptr, ptr %3, align 8, !tbaa !22
  %9 = getelementptr inbounds nuw %struct.XMedianContext, ptr %8, i32 0, i32 19
  call void @ff_framesync_uninit(ptr noundef %9)
  call void @llvm.lifetime.start.p0(i64 4, ptr %4) #11
  store i32 0, ptr %4, align 4, !tbaa !37
  br label %10

10:                                               ; preds = %37, %1
  %11 = load i32, ptr %4, align 4, !tbaa !37
  %12 = load ptr, ptr %3, align 8, !tbaa !22
  %13 = getelementptr inbounds nuw %struct.XMedianContext, ptr %12, i32 0, i32 3
  %14 = load i32, ptr %13, align 4, !tbaa !43
  %15 = icmp slt i32 %11, %14
  br i1 %15, label %16, label %27

16:                                               ; preds = %10
  %17 = load ptr, ptr %3, align 8, !tbaa !22
  %18 = getelementptr inbounds nuw %struct.XMedianContext, ptr %17, i32 0, i32 18
  %19 = load ptr, ptr %18, align 8, !tbaa !44
  %20 = icmp ne ptr %19, null
  br i1 %20, label %21, label %27

21:                                               ; preds = %16
  %22 = load ptr, ptr %3, align 8, !tbaa !22
  %23 = getelementptr inbounds nuw %struct.XMedianContext, ptr %22, i32 0, i32 7
  %24 = load i32, ptr %23, align 4, !tbaa !24
  %25 = icmp ne i32 %24, 0
  %26 = xor i1 %25, true
  br label %27

27:                                               ; preds = %21, %16, %10
  %28 = phi i1 [ false, %16 ], [ false, %10 ], [ %26, %21 ]
  br i1 %28, label %30, label %29

29:                                               ; preds = %27
  call void @llvm.lifetime.end.p0(i64 4, ptr %4) #11
  br label %40

30:                                               ; preds = %27
  %31 = load ptr, ptr %3, align 8, !tbaa !22
  %32 = getelementptr inbounds nuw %struct.XMedianContext, ptr %31, i32 0, i32 18
  %33 = load ptr, ptr %32, align 8, !tbaa !44
  %34 = load i32, ptr %4, align 4, !tbaa !37
  %35 = sext i32 %34 to i64
  %36 = getelementptr inbounds ptr, ptr %33, i64 %35
  call void @av_frame_free(ptr noundef %36)
  br label %37

37:                                               ; preds = %30
  %38 = load i32, ptr %4, align 4, !tbaa !37
  %39 = add nsw i32 %38, 1
  store i32 %39, ptr %4, align 4, !tbaa !37
  br label %10, !llvm.loop !45

40:                                               ; preds = %29
  %41 = load ptr, ptr %3, align 8, !tbaa !22
  %42 = getelementptr inbounds nuw %struct.XMedianContext, ptr %41, i32 0, i32 18
  call void @av_freep(ptr noundef %42)
  %43 = load ptr, ptr %3, align 8, !tbaa !22
  %44 = getelementptr inbounds nuw %struct.XMedianContext, ptr %43, i32 0, i32 16
  call void @av_freep(ptr noundef %44)
  %45 = load ptr, ptr %3, align 8, !tbaa !22
  %46 = getelementptr inbounds nuw %struct.XMedianContext, ptr %45, i32 0, i32 17
  call void @av_freep(ptr noundef %46)
  call void @llvm.lifetime.end.p0(i64 8, ptr %3) #11
  ret void
}