; Function Attrs: cold nounwind optsize uwtable
define internal void @uninit(ptr noundef readonly captures(none) %0) #1 {
  %2 = getelementptr inbounds nuw i8, ptr %0, i64 72
  %3 = load ptr, ptr %2, align 8, !tbaa !4
  %4 = getelementptr inbounds nuw i8, ptr %3, i64 136
  tail call void @ff_framesync_uninit(ptr noundef nonnull %4) #10
  %5 = getelementptr inbounds nuw i8, ptr %3, i64 128
  %6 = getelementptr inbounds nuw i8, ptr %3, i64 36
  %7 = getelementptr inbounds nuw i8, ptr %3, i64 20
  %8 = load i32, ptr %7, align 4, !tbaa !38
  %9 = icmp sgt i32 %8, 0
  br i1 %9, label %.lr.ph, label %.critedge

.lr.ph:                                           ; preds = %1, %15
  %indvars.iv = phi i64 [ %indvars.iv.next, %15 ], [ 0, %1 ]
  %10 = load ptr, ptr %5, align 8, !tbaa !39
  %.not = icmp eq ptr %10, null
  br i1 %.not, label %.critedge, label %11

11:                                               ; preds = %.lr.ph
  %12 = load i32, ptr %6, align 4, !tbaa !20
  %.not12 = icmp eq i32 %12, 0
  br i1 %.not12, label %15, label %.critedge

.critedge:                                        ; preds = %11, %15, %.lr.ph, %1
  tail call void @av_freep(ptr noundef nonnull %5) #10
  %13 = getelementptr inbounds nuw i8, ptr %3, i64 112
  tail call void @av_freep(ptr noundef nonnull %13) #10
  %14 = getelementptr inbounds nuw i8, ptr %3, i64 120
  tail call void @av_freep(ptr noundef nonnull %14) #10
  ret void

15:                                               ; preds = %11
  %16 = getelementptr inbounds nuw ptr, ptr %10, i64 %indvars.iv
  tail call void @av_frame_free(ptr noundef nonnull %16) #10
  %indvars.iv.next = add nuw nsw i64 %indvars.iv, 1
  %17 = load i32, ptr %7, align 4, !tbaa !38
  %18 = sext i32 %17 to i64
  %19 = icmp slt i64 %indvars.iv.next, %18
  br i1 %19, label %.lr.ph, label %.critedge, !llvm.loop !40
}